(lp0
V5702b9b2e5b972652f285cea
p1
aV5702b9b2e5b972652f285cef
p2
aV5702b9b2e5b972652f285cf4
p3
aV5702b9b2e5b972652f285cf9
p4
aV5702b9b2e5b972652f285cfe
p5
aV5702b9b2e5b972652f285d03
p6
aV5702b9b2e5b972652f285d08
p7
aV5702b9b2e5b972652f285d0d
p8
aV5702b9b2e5b972652f285d12
p9
aV5702b9b2e5b972652f285d17
p10
aV5702b9b2e5b972652f285d1c
p11
aV5702b9b2e5b972652f285d21
p12
aV5702b9b2e5b972652f285d26
p13
aV5702b9b2e5b972652f285d2b
p14
aV5702b9b2e5b972652f285d30
p15
aV5702b9b1e5b972652f285baf
p16
aV5702b9b1e5b972652f285bb4
p17
aV5702b9b1e5b972652f285bb9
p18
aV5702b9b1e5b972652f285bbe
p19
aV5702b9b1e5b972652f285bc3
p20
aV5702b9b1e5b972652f285bc8
p21
aV5702b9b1e5b972652f285bcd
p22
aV5702b9b1e5b972652f285bd2
p23
aV5702b9b2e5b972652f285bd7
p24
aV5702b9b2e5b972652f285bdc
p25
aV5702b9b2e5b972652f285be1
p26
aV5702b9b2e5b972652f285be6
p27
aV5702b9b2e5b972652f285beb
p28
aV5702b9b2e5b972652f285bf0
p29
aV5702b9b2e5b972652f285bf5
p30
aV5702b9b2e5b972652f285bfa
p31
aV5702b9b2e5b972652f285bff
p32
aV5702b9b2e5b972652f285c04
p33
aV5702b9b2e5b972652f285c09
p34
aV5702b9b2e5b972652f285c0e
p35
aV5702b9b2e5b972652f285c13
p36
aV5702b9b2e5b972652f285c18
p37
aV5702b9b2e5b972652f285c1d
p38
aV5702b9b2e5b972652f285c22
p39
aV5702b9b2e5b972652f285c27
p40
aV5702b9b2e5b972652f285c2c
p41
aV5702b9b2e5b972652f285c31
p42
aV5702b9b2e5b972652f285c36
p43
aV5702b9b2e5b972652f285c3b
p44
aV5702b9b2e5b972652f285c40
p45
aV5702b9b2e5b972652f285c45
p46
aV5702b9b2e5b972652f285c4a
p47
aV5702b9b2e5b972652f285c4f
p48
aV5702b9b2e5b972652f285c54
p49
aV5702b9b2e5b972652f285c59
p50
aV5702b9b2e5b972652f285c5e
p51
aV5702b9b2e5b972652f285c63
p52
aV5702b9b2e5b972652f285c68
p53
aV5702b9b2e5b972652f285c6d
p54
aV5702b9b2e5b972652f285c72
p55
aV5702b9b2e5b972652f285c77
p56
aV5702b9b2e5b972652f285c7c
p57
aV5702b9b2e5b972652f285c81
p58
aV5702b9b2e5b972652f285c86
p59
aV5702b9b2e5b972652f285c8b
p60
aV5702b9b2e5b972652f285c90
p61
aV5702b9b2e5b972652f285c95
p62
aV5702b9b2e5b972652f285c9a
p63
aV5702b9b2e5b972652f285c9f
p64
aV5702b9b2e5b972652f285ca4
p65
aV5702b9b2e5b972652f285ca9
p66
aV5702b9b2e5b972652f285cae
p67
aV5702b9b2e5b972652f285cb3
p68
aV5702b9b2e5b972652f285cb8
p69
aV5702b9b2e5b972652f285cbd
p70
aV5702b9b2e5b972652f285cc2
p71
aV5702b9b2e5b972652f285cc7
p72
aV5702b9b2e5b972652f285ccc
p73
aV5702b9b2e5b972652f285cd1
p74
aV5702b9b2e5b972652f285cd6
p75
aV5702b9b2e5b972652f285cdb
p76
aV5702b9b2e5b972652f285ce0
p77
aV5702b9b2e5b972652f285ce5
p78
aV5702b9b2e5b972652f285c3a
p79
aV5702b9b2e5b972652f285c3f
p80
aV5702b9b2e5b972652f285c44
p81
aV5702b9b2e5b972652f285c49
p82
aV5702b9b2e5b972652f285c4e
p83
aV5702b9b2e5b972652f285c53
p84
aV5702b9b2e5b972652f285c58
p85
aV5702b9b2e5b972652f285c5d
p86
aV5702b9b2e5b972652f285c62
p87
aV5702b9b2e5b972652f285c67
p88
aV5702b9b2e5b972652f285c6c
p89
aV5702b9b2e5b972652f285c71
p90
aV5702b9b2e5b972652f285c76
p91
aV5702b9b2e5b972652f285c7b
p92
aV5702b9b2e5b972652f285c80
p93
aV5702b9b2e5b972652f285c85
p94
aV5702b9b2e5b972652f285c8a
p95
aV5702b9b2e5b972652f285c8f
p96
aV5702b9b2e5b972652f285c94
p97
aV5702b9b2e5b972652f285c99
p98
aV5702b9b2e5b972652f285c9e
p99
aV5702b9b2e5b972652f285ca3
p100
aV5702b9b2e5b972652f285ca8
p101
aV5702b9b2e5b972652f285cad
p102
aV5702b9b2e5b972652f285cb2
p103
aV5702b9b2e5b972652f285cb7
p104
aV5702b9b2e5b972652f285cbc
p105
aV5702b9b2e5b972652f285cc1
p106
aV5702b9b2e5b972652f285cc6
p107
aV5702b9b2e5b972652f285ccb
p108
aV5702b9b2e5b972652f285cd0
p109
aV5702b9b2e5b972652f285cd5
p110
aV5702b9b2e5b972652f285cda
p111
aV5702b9b2e5b972652f285cdf
p112
aV5702b9b2e5b972652f285ce4
p113
aV5702b9b2e5b972652f285ce9
p114
aV5702b9b2e5b972652f285cee
p115
aV5702b9b2e5b972652f285cf3
p116
aV5702b9b2e5b972652f285cf8
p117
aV5702b9b2e5b972652f285cfd
p118
aV5702b9b2e5b972652f285d02
p119
aV5702b9b2e5b972652f285d07
p120
aV5702b9b2e5b972652f285d0c
p121
aV5702b9b2e5b972652f285d11
p122
aV5702b9b2e5b972652f285d16
p123
aV5702b9b2e5b972652f285d1b
p124
aV5702b9b2e5b972652f285d20
p125
aV5702b9b2e5b972652f285d25
p126
aV5702b9b2e5b972652f285d2a
p127
aV5702b9b2e5b972652f285d2f
p128
aV5702b9b0e5b972652f2857ae
p129
aV5702b9b0e5b972652f2857b3
p130
aV5702b9b0e5b972652f2857b8
p131
aV5702b9b0e5b972652f2857bd
p132
aV5702b9b0e5b972652f2857c2
p133
aV5702b9b0e5b972652f2857c7
p134
aV5702b9b0e5b972652f2857cc
p135
aV5702b9b1e5b972652f2857d1
p136
aV5702b9b1e5b972652f2857d6
p137
aV5702b9b1e5b972652f2857db
p138
aV5702b9b1e5b972652f2857e0
p139
aV5702b9b1e5b972652f2857e5
p140
aV5702b9b1e5b972652f2857ea
p141
aV5702b9b1e5b972652f2857ef
p142
aV5702b9b1e5b972652f2857f4
p143
aV5702b9b1e5b972652f2857f9
p144
aV5702b9b1e5b972652f2857fe
p145
aV5702b9b1e5b972652f285803
p146
aV5702b9b1e5b972652f285808
p147
aV5702b9b1e5b972652f28580d
p148
aV5702b9b1e5b972652f285812
p149
aV5702b9b1e5b972652f285817
p150
aV5702b9b1e5b972652f28581c
p151
aV5702b9b1e5b972652f285821
p152
aV5702b9b1e5b972652f285826
p153
aV5702b9b1e5b972652f28582b
p154
aV5702b9b1e5b972652f285830
p155
aV5702b9b1e5b972652f285835
p156
aV5702b9b1e5b972652f28583a
p157
aV5702b9b1e5b972652f28583f
p158
aV5702b9b1e5b972652f285844
p159
aV5702b9b1e5b972652f285849
p160
aV5702b9b1e5b972652f28584e
p161
aV5702b9b1e5b972652f285853
p162
aV5702b9b1e5b972652f285858
p163
aV5702b9b1e5b972652f28585d
p164
aV5702b9b1e5b972652f285862
p165
aV5702b9b1e5b972652f285867
p166
aV5702b9b1e5b972652f28586c
p167
aV5702b9b1e5b972652f285871
p168
aV5702b9b1e5b972652f285876
p169
aV5702b9b1e5b972652f28587b
p170
aV5702b9b1e5b972652f285880
p171
aV5702b9b1e5b972652f285885
p172
aV5702b9b1e5b972652f28588a
p173
aV5702b9b1e5b972652f28588f
p174
aV5702b9b1e5b972652f285894
p175
aV5702b9b1e5b972652f285899
p176
aV5702b9b1e5b972652f28589e
p177
aV5702b9b1e5b972652f2858a3
p178
aV5702b9b1e5b972652f2858a8
p179
aV5702b9b1e5b972652f2858ad
p180
aV5702b9b1e5b972652f2858b2
p181
aV5702b9b1e5b972652f2858b7
p182
aV5702b9b1e5b972652f2858bc
p183
aV5702b9b1e5b972652f2858c1
p184
aV5702b9b1e5b972652f2858c6
p185
aV5702b9b1e5b972652f2858cb
p186
aV5702b9b1e5b972652f2858d0
p187
aV5702b9b1e5b972652f2858d5
p188
aV5702b9b1e5b972652f2858da
p189
aV5702b9b1e5b972652f2858df
p190
aV5702b9b1e5b972652f2858e4
p191
aV5702b9b1e5b972652f2858e9
p192
aV5702b9b1e5b972652f2858ee
p193
aV5702b9b1e5b972652f2858f3
p194
aV5702b9b1e5b972652f2858f8
p195
aV5702b9b1e5b972652f2858fd
p196
aV5702b9b1e5b972652f285902
p197
aV5702b9b1e5b972652f285907
p198
aV5702b9b1e5b972652f28590c
p199
aV5702b9b1e5b972652f285911
p200
aV5702b9b1e5b972652f285916
p201
aV5702b9b1e5b972652f28591b
p202
aV5702b9b1e5b972652f285920
p203
aV5702b9b1e5b972652f285925
p204
aV5702b9b1e5b972652f28592a
p205
aV5702b9b1e5b972652f28592f
p206
aV5702b9b1e5b972652f285934
p207
aV5702b9b1e5b972652f285939
p208
aV5702b9b1e5b972652f28593e
p209
aV5702b9b1e5b972652f285943
p210
aV5702b9b1e5b972652f285948
p211
aV5702b9b1e5b972652f28594d
p212
aV5702b9b1e5b972652f285952
p213
aV5702b9b1e5b972652f285957
p214
aV5702b9b1e5b972652f28595c
p215
aV5702b9b1e5b972652f285961
p216
aV5702b9b1e5b972652f285966
p217
aV5702b9b1e5b972652f28596b
p218
aV5702b9b1e5b972652f285970
p219
aV5702b9b1e5b972652f285975
p220
aV5702b9b1e5b972652f28597a
p221
aV5702b9b1e5b972652f28597f
p222
aV5702b9b1e5b972652f285984
p223
aV5702b9b1e5b972652f285989
p224
aV5702b9b1e5b972652f28598e
p225
aV5702b9b1e5b972652f285993
p226
aV5702b9b1e5b972652f285998
p227
aV5702b9b1e5b972652f28599d
p228
aV5702b9b1e5b972652f2859a2
p229
aV5702b9b1e5b972652f2859a7
p230
aV5702b9b1e5b972652f2859ac
p231
aV5702b9b1e5b972652f2859b1
p232
aV5702b9b1e5b972652f2859b6
p233
aV5702b9b1e5b972652f2859bb
p234
aV5702b9b1e5b972652f2859c0
p235
aV5702b9b1e5b972652f2859c5
p236
aV5702b9b1e5b972652f2859ca
p237
aV5702b9b1e5b972652f2859cf
p238
aV5702b9b1e5b972652f2859d4
p239
aV5702b9b1e5b972652f2859d9
p240
aV5702b9b1e5b972652f2859de
p241
aV5702b9b1e5b972652f2859e3
p242
aV5702b9b1e5b972652f2859e8
p243
aV5702b9b1e5b972652f2859ed
p244
aV5702b9b1e5b972652f2859f2
p245
aV5702b9b1e5b972652f2859f7
p246
aV5702b9b1e5b972652f2859fc
p247
aV5702b9b1e5b972652f285a01
p248
aV5702b9b1e5b972652f285a06
p249
aV5702b9b1e5b972652f285a0b
p250
aV5702b9b1e5b972652f285a10
p251
aV5702b9b1e5b972652f285a15
p252
aV5702b9b1e5b972652f285a1a
p253
aV5702b9b1e5b972652f285a1f
p254
aV5702b9b1e5b972652f285a24
p255
aV5702b9b1e5b972652f285a29
p256
aV5702b9b1e5b972652f285a2e
p257
aV5702b9b1e5b972652f285a33
p258
aV5702b9b1e5b972652f285a38
p259
aV5702b9b1e5b972652f285a3d
p260
aV5702b9b1e5b972652f285a42
p261
aV5702b9b1e5b972652f285a47
p262
aV5702b9b1e5b972652f285a4c
p263
aV5702b9b1e5b972652f285a51
p264
aV5702b9b1e5b972652f285a56
p265
aV5702b9b1e5b972652f285a5b
p266
aV5702b9b1e5b972652f285a60
p267
aV5702b9b1e5b972652f285a65
p268
aV5702b9b1e5b972652f285a6a
p269
aV5702b9b1e5b972652f285a6f
p270
aV5702b9b1e5b972652f285a74
p271
aV5702b9b1e5b972652f285a79
p272
aV5702b9b1e5b972652f285a7e
p273
aV5702b9b1e5b972652f285a83
p274
aV5702b9b1e5b972652f285a88
p275
aV5702b9b1e5b972652f285a8d
p276
aV5702b9b1e5b972652f285a92
p277
aV5702b9b1e5b972652f285a97
p278
aV5702b9b1e5b972652f285a9c
p279
aV5702b9b1e5b972652f285aa1
p280
aV5702b9b1e5b972652f285aa6
p281
aV5702b9b1e5b972652f285aab
p282
aV5702b9b1e5b972652f285ab0
p283
aV5702b9b1e5b972652f285ab5
p284
aV5702b9b1e5b972652f285aba
p285
aV5702b9b1e5b972652f285abf
p286
aV5702b9b1e5b972652f285ac4
p287
aV5702b9b1e5b972652f285ac9
p288
aV5702b9b1e5b972652f285ace
p289
aV5702b9b1e5b972652f285ad3
p290
aV5702b9b1e5b972652f285ad8
p291
aV5702b9b1e5b972652f285add
p292
aV5702b9b1e5b972652f285ae2
p293
aV5702b9b1e5b972652f285ae7
p294
aV5702b9b1e5b972652f285aec
p295
aV5702b9b1e5b972652f285af1
p296
aV5702b9b1e5b972652f285af6
p297
aV5702b9b1e5b972652f285afb
p298
aV5702b9b1e5b972652f285b00
p299
aV5702b9b1e5b972652f285b05
p300
aV5702b9b1e5b972652f285b0a
p301
aV5702b9b1e5b972652f285b0f
p302
aV5702b9b1e5b972652f285b14
p303
aV5702b9b1e5b972652f285b19
p304
aV5702b9b1e5b972652f285b1e
p305
aV5702b9b1e5b972652f285b23
p306
aV5702b9b1e5b972652f285b28
p307
aV5702b9b1e5b972652f285b2d
p308
aV5702b9b1e5b972652f285b32
p309
aV5702b9b1e5b972652f285b37
p310
aV5702b9b1e5b972652f285b3c
p311
aV5702b9b1e5b972652f285b41
p312
aV5702b9b1e5b972652f285b46
p313
aV5702b9b1e5b972652f285b4b
p314
aV5702b9b1e5b972652f285b50
p315
aV5702b9b1e5b972652f285b55
p316
aV5702b9b1e5b972652f285b5a
p317
aV5702b9b1e5b972652f285b5f
p318
aV5702b9b1e5b972652f285b64
p319
aV5702b9b1e5b972652f285b69
p320
aV5702b9b1e5b972652f285b6e
p321
aV5702b9b1e5b972652f285b73
p322
aV5702b9b1e5b972652f285b78
p323
aV5702b9b1e5b972652f285b7d
p324
aV5702b9b1e5b972652f285b82
p325
aV5702b9b1e5b972652f285b87
p326
aV5702b9b1e5b972652f285b8c
p327
aV5702b9b1e5b972652f285b91
p328
aV5702b9b1e5b972652f285b96
p329
aV5702b9b1e5b972652f285b9b
p330
aV5702b9b1e5b972652f285ba0
p331
aV5702b9b1e5b972652f285ba5
p332
aV5702b9b1e5b972652f285baa
p333
aV5702b9b1e5b972652f2858d1
p334
aV5702b9b1e5b972652f2858d6
p335
aV5702b9b1e5b972652f2858db
p336
aV5702b9b1e5b972652f2858e0
p337
aV5702b9b1e5b972652f2858e5
p338
aV5702b9b1e5b972652f2858ea
p339
aV5702b9b1e5b972652f2858ef
p340
aV5702b9b1e5b972652f2858f4
p341
aV5702b9b1e5b972652f2858f9
p342
aV5702b9b1e5b972652f2858fe
p343
aV5702b9b1e5b972652f285903
p344
aV5702b9b1e5b972652f285908
p345
aV5702b9b1e5b972652f28590d
p346
aV5702b9b1e5b972652f285912
p347
aV5702b9b1e5b972652f285917
p348
aV5702b9b1e5b972652f28591c
p349
aV5702b9b1e5b972652f285921
p350
aV5702b9b1e5b972652f285926
p351
aV5702b9b1e5b972652f28592b
p352
aV5702b9b1e5b972652f285930
p353
aV5702b9b1e5b972652f285935
p354
aV5702b9b1e5b972652f28593a
p355
aV5702b9b1e5b972652f28593f
p356
aV5702b9b1e5b972652f285944
p357
aV5702b9b1e5b972652f285949
p358
aV5702b9b1e5b972652f28594e
p359
aV5702b9b1e5b972652f285953
p360
aV5702b9b1e5b972652f285958
p361
aV5702b9b1e5b972652f28595d
p362
aV5702b9b1e5b972652f285962
p363
aV5702b9b1e5b972652f285967
p364
aV5702b9b1e5b972652f28596c
p365
aV5702b9b1e5b972652f285971
p366
aV5702b9b1e5b972652f285976
p367
aV5702b9b1e5b972652f28597b
p368
aV5702b9b1e5b972652f285980
p369
aV5702b9b1e5b972652f285985
p370
aV5702b9b1e5b972652f28598a
p371
aV5702b9b1e5b972652f28598f
p372
aV5702b9b1e5b972652f285994
p373
aV5702b9b1e5b972652f285999
p374
aV5702b9b1e5b972652f28599e
p375
aV5702b9b1e5b972652f2859a3
p376
aV5702b9b1e5b972652f2859a8
p377
aV5702b9b1e5b972652f2859ad
p378
aV5702b9b1e5b972652f2859b2
p379
aV5702b9b1e5b972652f2859b7
p380
aV5702b9b1e5b972652f2859bc
p381
aV5702b9b1e5b972652f2859c1
p382
aV5702b9b1e5b972652f2859c6
p383
aV5702b9b1e5b972652f2859cb
p384
aV5702b9b1e5b972652f2859d0
p385
aV5702b9b1e5b972652f2859d5
p386
aV5702b9b1e5b972652f2859da
p387
aV5702b9b1e5b972652f2859df
p388
aV5702b9b1e5b972652f2859e4
p389
aV5702b9b1e5b972652f2859e9
p390
aV5702b9b1e5b972652f2859ee
p391
aV5702b9b1e5b972652f2859f3
p392
aV5702b9b1e5b972652f2859f8
p393
aV5702b9b1e5b972652f2859fd
p394
aV5702b9b1e5b972652f285a02
p395
aV5702b9b1e5b972652f285a07
p396
aV5702b9b1e5b972652f285a0c
p397
aV5702b9b1e5b972652f285a11
p398
aV5702b9b1e5b972652f285a16
p399
aV5702b9b1e5b972652f285a1b
p400
aV5702b9b1e5b972652f285a20
p401
aV5702b9b1e5b972652f285a25
p402
aV5702b9b1e5b972652f285a2a
p403
aV5702b9b1e5b972652f285a2f
p404
aV5702b9b1e5b972652f285a34
p405
aV5702b9b1e5b972652f285a39
p406
aV5702b9b1e5b972652f285a3e
p407
aV5702b9b1e5b972652f285a43
p408
aV5702b9b1e5b972652f285a48
p409
aV5702b9b1e5b972652f285a4d
p410
aV5702b9b1e5b972652f285a52
p411
aV5702b9b1e5b972652f285a57
p412
aV5702b9b1e5b972652f285a5c
p413
aV5702b9b1e5b972652f285a61
p414
aV5702b9b1e5b972652f285a66
p415
aV5702b9b1e5b972652f285a6b
p416
aV5702b9b1e5b972652f285a70
p417
aV5702b9b1e5b972652f285a75
p418
aV5702b9b1e5b972652f285a7a
p419
aV5702b9b1e5b972652f285a7f
p420
aV5702b9b1e5b972652f285a84
p421
aV5702b9b1e5b972652f285a89
p422
aV5702b9b1e5b972652f285a8e
p423
aV5702b9b1e5b972652f285a93
p424
aV5702b9b1e5b972652f285a98
p425
aV5702b9b1e5b972652f285a9d
p426
aV5702b9b1e5b972652f285aa2
p427
aV5702b9b1e5b972652f285aa7
p428
aV5702b9b1e5b972652f285aac
p429
aV5702b9b1e5b972652f285ab1
p430
aV5702b9b1e5b972652f285ab6
p431
aV5702b9b1e5b972652f285abb
p432
aV5702b9b1e5b972652f285ac0
p433
aV5702b9b1e5b972652f285ac5
p434
aV5702b9b1e5b972652f285aca
p435
aV5702b9b1e5b972652f285acf
p436
aV5702b9b1e5b972652f285ad4
p437
aV5702b9b1e5b972652f285ad9
p438
aV5702b9b1e5b972652f285ade
p439
aV5702b9b1e5b972652f285ae3
p440
aV5702b9b1e5b972652f285ae8
p441
aV5702b9b1e5b972652f285aed
p442
aV5702b9b1e5b972652f285af2
p443
aV5702b9b1e5b972652f285af7
p444
aV5702b9b1e5b972652f285afc
p445
aV5702b9b1e5b972652f285b01
p446
aV5702b9b1e5b972652f285b06
p447
aV5702b9b1e5b972652f285b0b
p448
aV5702b9b1e5b972652f285b10
p449
aV5702b9b1e5b972652f285b15
p450
aV5702b9b1e5b972652f285b1a
p451
aV5702b9b1e5b972652f285b1f
p452
aV5702b9b1e5b972652f285b24
p453
aV5702b9b1e5b972652f285b29
p454
aV5702b9b1e5b972652f285b2e
p455
aV5702b9b1e5b972652f285b33
p456
aV5702b9b1e5b972652f285b38
p457
aV5702b9b1e5b972652f285b3d
p458
aV5702b9b1e5b972652f285b42
p459
aV5702b9b1e5b972652f285b47
p460
aV5702b9b1e5b972652f285b4c
p461
aV5702b9b1e5b972652f285b51
p462
aV5702b9b1e5b972652f285b56
p463
aV5702b9b1e5b972652f285b5b
p464
aV5702b9b1e5b972652f285b60
p465
aV5702b9b1e5b972652f285b65
p466
aV5702b9b1e5b972652f285b6a
p467
aV5702b9b1e5b972652f285b6f
p468
aV5702b9b1e5b972652f285b74
p469
aV5702b9b1e5b972652f285b79
p470
aV5702b9b1e5b972652f285b7e
p471
aV5702b9b1e5b972652f285b83
p472
aV5702b9b1e5b972652f285b88
p473
aV5702b9b1e5b972652f285b8d
p474
aV5702b9b1e5b972652f285b92
p475
aV5702b9b1e5b972652f285b97
p476
aV5702b9b1e5b972652f285b9c
p477
aV5702b9b1e5b972652f285ba1
p478
aV5702b9b1e5b972652f285ba6
p479
aV5702b9b1e5b972652f285bab
p480
aV5702b9b1e5b972652f285bb0
p481
aV5702b9b1e5b972652f285bb5
p482
aV5702b9b1e5b972652f285bba
p483
aV5702b9b1e5b972652f285bbf
p484
aV5702b9b1e5b972652f285bc4
p485
aV5702b9b1e5b972652f285bc9
p486
aV5702b9b1e5b972652f285bce
p487
aV5702b9b1e5b972652f285bd3
p488
aV5702b9b2e5b972652f285bd8
p489
aV5702b9b2e5b972652f285bdd
p490
aV5702b9b2e5b972652f285be2
p491
aV5702b9b2e5b972652f285be7
p492
aV5702b9b2e5b972652f285bec
p493
aV5702b9b2e5b972652f285bf1
p494
aV5702b9b2e5b972652f285bf6
p495
aV5702b9b2e5b972652f285bfb
p496
aV5702b9b2e5b972652f285c00
p497
aV5702b9b2e5b972652f285c05
p498
aV5702b9b2e5b972652f285c0a
p499
aV5702b9b2e5b972652f285c0f
p500
aV5702b9b2e5b972652f285c14
p501
aV5702b9b2e5b972652f285c19
p502
aV5702b9b2e5b972652f285c1e
p503
aV5702b9b2e5b972652f285c23
p504
aV5702b9b2e5b972652f285c28
p505
aV5702b9b2e5b972652f285c2d
p506
aV5702b9b2e5b972652f285c32
p507
aV5702b9b2e5b972652f285c37
p508
aV5702b9b2e5b972652f285c3c
p509
aV5702b9b2e5b972652f285c41
p510
aV5702b9b2e5b972652f285c46
p511
aV5702b9b2e5b972652f285c4b
p512
aV5702b9b2e5b972652f285c50
p513
aV5702b9b2e5b972652f285c55
p514
aV5702b9b2e5b972652f285c5a
p515
aV5702b9b2e5b972652f285c5f
p516
aV5702b9b2e5b972652f285c64
p517
aV5702b9b2e5b972652f285c69
p518
aV5702b9b2e5b972652f285c6e
p519
aV5702b9b2e5b972652f285c73
p520
aV5702b9b2e5b972652f285c78
p521
aV5702b9b2e5b972652f285c7d
p522
aV5702b9b2e5b972652f285c82
p523
aV5702b9b2e5b972652f285c87
p524
aV5702b9b2e5b972652f285c8c
p525
aV5702b9b2e5b972652f285c91
p526
aV5702b9b2e5b972652f285c96
p527
aV5702b9b2e5b972652f285c9b
p528
aV5702b9b2e5b972652f285ca0
p529
aV5702b9b2e5b972652f285ca5
p530
aV5702b9b2e5b972652f285caa
p531
aV5702b9b2e5b972652f285caf
p532
aV5702b9b2e5b972652f285cb4
p533
aV5702b9b2e5b972652f285cb9
p534
aV5702b9b2e5b972652f285cbe
p535
aV5702b9b2e5b972652f285cc3
p536
aV5702b9b2e5b972652f285cc8
p537
aV5702b9b2e5b972652f285ccd
p538
aV5702b9b2e5b972652f285cd2
p539
aV5702b9b2e5b972652f285cd7
p540
aV5702b9b2e5b972652f285cdc
p541
aV5702b9b2e5b972652f285ce1
p542
aV5702b9b2e5b972652f285ce6
p543
aV5702b9b2e5b972652f285ceb
p544
aV5702b9b2e5b972652f285cf0
p545
aV5702b9b2e5b972652f285cf5
p546
aV5702b9b2e5b972652f285cfa
p547
aV5702b9b2e5b972652f285cff
p548
aV5702b9b2e5b972652f285d04
p549
aV5702b9b2e5b972652f285d09
p550
aV5702b9b2e5b972652f285d0e
p551
aV5702b9b2e5b972652f285d13
p552
aV5702b9b2e5b972652f285d18
p553
aV5702b9b2e5b972652f285d1d
p554
aV5702b9b2e5b972652f285d22
p555
aV5702b9b2e5b972652f285d27
p556
aV5702b9b2e5b972652f285d2c
p557
aV5702b9b0e5b972652f2857ab
p558
aV5702b9b0e5b972652f2857b0
p559
aV5702b9b0e5b972652f2857b5
p560
aV5702b9b0e5b972652f2857ba
p561
aV5702b9b0e5b972652f2857bf
p562
aV5702b9b0e5b972652f2857c4
p563
aV5702b9b0e5b972652f2857c9
p564
aV5702b9b0e5b972652f2857ce
p565
aV5702b9b1e5b972652f2857d3
p566
aV5702b9b1e5b972652f2857d8
p567
aV5702b9b1e5b972652f2857dd
p568
aV5702b9b1e5b972652f2857e2
p569
aV5702b9b1e5b972652f2857e7
p570
aV5702b9b1e5b972652f2857ec
p571
aV5702b9b1e5b972652f2857f1
p572
aV5702b9b1e5b972652f2857f6
p573
aV5702b9b1e5b972652f2857fb
p574
aV5702b9b1e5b972652f285800
p575
aV5702b9b1e5b972652f285805
p576
aV5702b9b1e5b972652f28580a
p577
aV5702b9b1e5b972652f28580f
p578
aV5702b9b1e5b972652f285814
p579
aV5702b9b1e5b972652f285819
p580
aV5702b9b1e5b972652f28581e
p581
aV5702b9b1e5b972652f285823
p582
aV5702b9b1e5b972652f285828
p583
aV5702b9b1e5b972652f28582d
p584
aV5702b9b1e5b972652f285832
p585
aV5702b9b1e5b972652f285837
p586
aV5702b9b1e5b972652f28583c
p587
aV5702b9b1e5b972652f285841
p588
aV5702b9b1e5b972652f285846
p589
aV5702b9b1e5b972652f28584b
p590
aV5702b9b1e5b972652f285850
p591
aV5702b9b1e5b972652f285855
p592
aV5702b9b1e5b972652f28585a
p593
aV5702b9b1e5b972652f28585f
p594
aV5702b9b1e5b972652f285864
p595
aV5702b9b1e5b972652f285869
p596
aV5702b9b1e5b972652f28586e
p597
aV5702b9b1e5b972652f285873
p598
aV5702b9b1e5b972652f285878
p599
aV5702b9b1e5b972652f28587d
p600
aV5702b9b1e5b972652f285882
p601
aV5702b9b1e5b972652f285887
p602
aV5702b9b1e5b972652f28588c
p603
aV5702b9b1e5b972652f285891
p604
aV5702b9b1e5b972652f285896
p605
aV5702b9b1e5b972652f28589b
p606
aV5702b9b1e5b972652f2858a0
p607
aV5702b9b1e5b972652f2858a5
p608
aV5702b9b1e5b972652f2858aa
p609
aV5702b9b1e5b972652f2858af
p610
aV5702b9b1e5b972652f2858b4
p611
aV5702b9b1e5b972652f2858b9
p612
aV5702b9b1e5b972652f2858be
p613
aV5702b9b1e5b972652f2858c3
p614
aV5702b9b1e5b972652f2858c8
p615
aV5702b9b1e5b972652f2858cd
p616
aV5702b9b1e5b972652f2858d2
p617
aV5702b9b1e5b972652f2858d7
p618
aV5702b9b1e5b972652f2858dc
p619
aV5702b9b1e5b972652f2858e1
p620
aV5702b9b1e5b972652f2858e6
p621
aV5702b9b1e5b972652f2858eb
p622
aV5702b9b1e5b972652f2858f0
p623
aV5702b9b1e5b972652f2858f5
p624
aV5702b9b1e5b972652f2858fa
p625
aV5702b9b1e5b972652f2858ff
p626
aV5702b9b1e5b972652f285904
p627
aV5702b9b1e5b972652f285909
p628
aV5702b9b1e5b972652f28590e
p629
aV5702b9b1e5b972652f285913
p630
aV5702b9b1e5b972652f285918
p631
aV5702b9b1e5b972652f28591d
p632
aV5702b9b1e5b972652f285922
p633
aV5702b9b1e5b972652f285927
p634
aV5702b9b1e5b972652f28592c
p635
aV5702b9b1e5b972652f285931
p636
aV5702b9b1e5b972652f285936
p637
aV5702b9b1e5b972652f28593b
p638
aV5702b9b1e5b972652f285940
p639
aV5702b9b1e5b972652f285945
p640
aV5702b9b1e5b972652f28594a
p641
aV5702b9b1e5b972652f28594f
p642
aV5702b9b1e5b972652f285954
p643
aV5702b9b1e5b972652f285959
p644
aV5702b9b1e5b972652f28595e
p645
aV5702b9b1e5b972652f285963
p646
aV5702b9b1e5b972652f285968
p647
aV5702b9b1e5b972652f28596d
p648
aV5702b9b1e5b972652f285972
p649
aV5702b9b1e5b972652f285977
p650
aV5702b9b1e5b972652f28597c
p651
aV5702b9b1e5b972652f285981
p652
aV5702b9b1e5b972652f285986
p653
aV5702b9b1e5b972652f28598b
p654
aV5702b9b1e5b972652f285990
p655
aV5702b9b1e5b972652f285995
p656
aV5702b9b1e5b972652f28599a
p657
aV5702b9b1e5b972652f28599f
p658
aV5702b9b1e5b972652f2859a4
p659
aV5702b9b1e5b972652f2859a9
p660
aV5702b9b1e5b972652f2859ae
p661
aV5702b9b1e5b972652f2859b3
p662
aV5702b9b1e5b972652f2859b8
p663
aV5702b9b1e5b972652f2859bd
p664
aV5702b9b1e5b972652f2859c2
p665
aV5702b9b1e5b972652f2859c7
p666
aV5702b9b1e5b972652f2859cc
p667
aV5702b9b1e5b972652f2859d1
p668
aV5702b9b1e5b972652f2859d6
p669
aV5702b9b1e5b972652f2859db
p670
aV5702b9b1e5b972652f2859e0
p671
aV5702b9b1e5b972652f2859e5
p672
aV5702b9b1e5b972652f2859ea
p673
aV5702b9b1e5b972652f2859ef
p674
aV5702b9b1e5b972652f2859f4
p675
aV5702b9b1e5b972652f2859f9
p676
aV5702b9b1e5b972652f2859fe
p677
aV5702b9b1e5b972652f285a03
p678
aV5702b9b1e5b972652f285a08
p679
aV5702b9b1e5b972652f285a0d
p680
aV5702b9b1e5b972652f285a12
p681
aV5702b9b1e5b972652f285a17
p682
aV5702b9b1e5b972652f285a1c
p683
aV5702b9b1e5b972652f285a21
p684
aV5702b9b1e5b972652f285a26
p685
aV5702b9b1e5b972652f285a2b
p686
aV5702b9b1e5b972652f285a30
p687
aV5702b9b1e5b972652f285a35
p688
aV5702b9b1e5b972652f285a3a
p689
aV5702b9b1e5b972652f285a3f
p690
aV5702b9b1e5b972652f285a44
p691
aV5702b9b1e5b972652f285a49
p692
aV5702b9b1e5b972652f285a4e
p693
aV5702b9b1e5b972652f285a53
p694
aV5702b9b1e5b972652f285a58
p695
aV5702b9b1e5b972652f285a5d
p696
aV5702b9b1e5b972652f285a62
p697
aV5702b9b1e5b972652f285a67
p698
aV5702b9b1e5b972652f285a6c
p699
aV5702b9b1e5b972652f285a71
p700
aV5702b9b1e5b972652f285a76
p701
aV5702b9b1e5b972652f285a7b
p702
aV5702b9b1e5b972652f285a80
p703
aV5702b9b1e5b972652f285a85
p704
aV5702b9b1e5b972652f285a8a
p705
aV5702b9b1e5b972652f285a8f
p706
aV5702b9b1e5b972652f285a94
p707
aV5702b9b1e5b972652f285a99
p708
aV5702b9b1e5b972652f285a9e
p709
aV5702b9b1e5b972652f285aa3
p710
aV5702b9b1e5b972652f285aa8
p711
aV5702b9b1e5b972652f285aad
p712
aV5702b9b1e5b972652f285ab2
p713
aV5702b9b1e5b972652f285ab7
p714
aV5702b9b1e5b972652f285abc
p715
aV5702b9b1e5b972652f285ac1
p716
aV5702b9b1e5b972652f285ac6
p717
aV5702b9b1e5b972652f285acb
p718
aV5702b9b1e5b972652f285ad0
p719
aV5702b9b1e5b972652f285ad5
p720
aV5702b9b1e5b972652f285ada
p721
aV5702b9b1e5b972652f285adf
p722
aV5702b9b1e5b972652f285ae4
p723
aV5702b9b1e5b972652f285ae9
p724
aV5702b9b1e5b972652f285aee
p725
aV5702b9b1e5b972652f285af3
p726
aV5702b9b1e5b972652f285af8
p727
aV5702b9b1e5b972652f285afd
p728
aV5702b9b1e5b972652f285b02
p729
aV5702b9b1e5b972652f285b07
p730
aV5702b9b1e5b972652f285b0c
p731
aV5702b9b1e5b972652f285b11
p732
aV5702b9b1e5b972652f285b16
p733
aV5702b9b1e5b972652f285b1b
p734
aV5702b9b1e5b972652f285b20
p735
aV5702b9b1e5b972652f285b25
p736
aV5702b9b1e5b972652f285b2a
p737
aV5702b9b1e5b972652f285b2f
p738
aV5702b9b1e5b972652f285b34
p739
aV5702b9b1e5b972652f285b39
p740
aV5702b9b1e5b972652f285b3e
p741
aV5702b9b1e5b972652f285b43
p742
aV5702b9b1e5b972652f285b48
p743
aV5702b9b1e5b972652f285b4d
p744
aV5702b9b1e5b972652f285b52
p745
aV5702b9b1e5b972652f285b57
p746
aV5702b9b1e5b972652f285b5c
p747
aV5702b9b1e5b972652f285b61
p748
aV5702b9b1e5b972652f285b66
p749
aV5702b9b1e5b972652f285b6b
p750
aV5702b9b1e5b972652f285b70
p751
aV5702b9b1e5b972652f285b75
p752
aV5702b9b1e5b972652f285b7a
p753
aV5702b9b1e5b972652f285b7f
p754
aV5702b9b1e5b972652f285b84
p755
aV5702b9b1e5b972652f285b89
p756
aV5702b9b1e5b972652f285b8e
p757
aV5702b9b1e5b972652f285b93
p758
aV5702b9b1e5b972652f285b98
p759
aV5702b9b1e5b972652f285b9d
p760
aV5702b9b1e5b972652f285ba2
p761
aV5702b9b1e5b972652f285ba7
p762
aV5702b9b1e5b972652f285bac
p763
aV5702b9b1e5b972652f285bb1
p764
aV5702b9b1e5b972652f285bb6
p765
aV5702b9b1e5b972652f285bbb
p766
aV5702b9b1e5b972652f285bc0
p767
aV5702b9b1e5b972652f285bc5
p768
aV5702b9b1e5b972652f285bca
p769
aV5702b9b1e5b972652f285bcf
p770
aV5702b9b1e5b972652f285bd4
p771
aV5702b9b2e5b972652f285bd9
p772
aV5702b9b2e5b972652f285bde
p773
aV5702b9b2e5b972652f285be3
p774
aV5702b9b2e5b972652f285be8
p775
aV5702b9b2e5b972652f285bed
p776
aV5702b9b2e5b972652f285bf2
p777
aV5702b9b2e5b972652f285bf7
p778
aV5702b9b2e5b972652f285bfc
p779
aV5702b9b2e5b972652f285c01
p780
aV5702b9b2e5b972652f285c06
p781
aV5702b9b2e5b972652f285c0b
p782
aV5702b9b2e5b972652f285c10
p783
aV5702b9b2e5b972652f285c15
p784
aV5702b9b2e5b972652f285c1a
p785
aV5702b9b2e5b972652f285c1f
p786
aV5702b9b2e5b972652f285c24
p787
aV5702b9b2e5b972652f285c29
p788
aV5702b9b2e5b972652f285c2e
p789
aV5702b9b2e5b972652f285c33
p790
aV5702b9b2e5b972652f285c38
p791
aV5702b9b2e5b972652f285c3d
p792
aV5702b9b2e5b972652f285c42
p793
aV5702b9b2e5b972652f285c47
p794
aV5702b9b2e5b972652f285c4c
p795
aV5702b9b2e5b972652f285c51
p796
aV5702b9b2e5b972652f285c56
p797
aV5702b9b2e5b972652f285c5b
p798
aV5702b9b2e5b972652f285c60
p799
aV5702b9b2e5b972652f285c65
p800
aV5702b9b2e5b972652f285c6a
p801
aV5702b9b2e5b972652f285c6f
p802
aV5702b9b2e5b972652f285c74
p803
aV5702b9b2e5b972652f285c79
p804
aV5702b9b2e5b972652f285c7e
p805
aV5702b9b2e5b972652f285c83
p806
aV5702b9b2e5b972652f285c88
p807
aV5702b9b2e5b972652f285c8d
p808
aV5702b9b2e5b972652f285c92
p809
aV5702b9b2e5b972652f285c97
p810
aV5702b9b2e5b972652f285c9c
p811
aV5702b9b2e5b972652f285ca1
p812
aV5702b9b2e5b972652f285ca6
p813
aV5702b9b2e5b972652f285cab
p814
aV5702b9b2e5b972652f285cb0
p815
aV5702b9b2e5b972652f285cb5
p816
aV5702b9b2e5b972652f285cba
p817
aV5702b9b2e5b972652f285cbf
p818
aV5702b9b2e5b972652f285cc4
p819
aV5702b9b2e5b972652f285cc9
p820
aV5702b9b2e5b972652f285cce
p821
aV5702b9b2e5b972652f285cd3
p822
aV5702b9b2e5b972652f285cd8
p823
aV5702b9b2e5b972652f285cdd
p824
aV5702b9b2e5b972652f285ce2
p825
aV5702b9b2e5b972652f285ce7
p826
aV5702b9b2e5b972652f285cec
p827
aV5702b9b2e5b972652f285cf1
p828
aV5702b9b2e5b972652f285cf6
p829
aV5702b9b2e5b972652f285cfb
p830
aV5702b9b2e5b972652f285d00
p831
aV5702b9b2e5b972652f285d05
p832
aV5702b9b2e5b972652f285d0a
p833
aV5702b9b2e5b972652f285d0f
p834
aV5702b9b2e5b972652f285d14
p835
aV5702b9b2e5b972652f285d19
p836
aV5702b9b2e5b972652f285d1e
p837
aV5702b9b2e5b972652f285d23
p838
aV5702b9b2e5b972652f285d28
p839
aV5702b9b2e5b972652f285d2d
p840
aV5702b9b0e5b972652f2857ac
p841
aV5702b9b0e5b972652f2857b1
p842
aV5702b9b0e5b972652f2857b6
p843
aV5702b9b0e5b972652f2857bb
p844
aV5702b9b0e5b972652f2857c0
p845
aV5702b9b0e5b972652f2857c5
p846
aV5702b9b0e5b972652f2857ca
p847
aV5702b9b1e5b972652f2857cf
p848
aV5702b9b1e5b972652f2857d4
p849
aV5702b9b1e5b972652f2857d9
p850
aV5702b9b1e5b972652f2857de
p851
aV5702b9b1e5b972652f2857e3
p852
aV5702b9b1e5b972652f2857e8
p853
aV5702b9b1e5b972652f2857ed
p854
aV5702b9b1e5b972652f2857f2
p855
aV5702b9b1e5b972652f2857f7
p856
aV5702b9b1e5b972652f2857fc
p857
aV5702b9b1e5b972652f285801
p858
aV5702b9b1e5b972652f285806
p859
aV5702b9b1e5b972652f28580b
p860
aV5702b9b1e5b972652f285810
p861
aV5702b9b1e5b972652f285815
p862
aV5702b9b1e5b972652f28581a
p863
aV5702b9b1e5b972652f28581f
p864
aV5702b9b1e5b972652f285824
p865
aV5702b9b1e5b972652f285829
p866
aV5702b9b1e5b972652f28582e
p867
aV5702b9b1e5b972652f285833
p868
aV5702b9b1e5b972652f285838
p869
aV5702b9b1e5b972652f28583d
p870
aV5702b9b1e5b972652f285842
p871
aV5702b9b1e5b972652f285847
p872
aV5702b9b1e5b972652f28584c
p873
aV5702b9b1e5b972652f285851
p874
aV5702b9b1e5b972652f285856
p875
aV5702b9b1e5b972652f28585b
p876
aV5702b9b1e5b972652f285860
p877
aV5702b9b1e5b972652f285865
p878
aV5702b9b1e5b972652f28586a
p879
aV5702b9b1e5b972652f28586f
p880
aV5702b9b1e5b972652f285874
p881
aV5702b9b1e5b972652f285879
p882
aV5702b9b1e5b972652f28587e
p883
aV5702b9b1e5b972652f285883
p884
aV5702b9b1e5b972652f285888
p885
aV5702b9b1e5b972652f28588d
p886
aV5702b9b1e5b972652f285892
p887
aV5702b9b1e5b972652f285897
p888
aV5702b9b1e5b972652f28589c
p889
aV5702b9b1e5b972652f2858a1
p890
aV5702b9b1e5b972652f2858a6
p891
aV5702b9b1e5b972652f2858ab
p892
aV5702b9b1e5b972652f2858b0
p893
aV5702b9b1e5b972652f2858b5
p894
aV5702b9b1e5b972652f2858ba
p895
aV5702b9b1e5b972652f2858bf
p896
aV5702b9b1e5b972652f2858c4
p897
aV5702b9b1e5b972652f2858c9
p898
aV5702b9b1e5b972652f2858ce
p899
aV5702b9b1e5b972652f2858d3
p900
aV5702b9b1e5b972652f2858d8
p901
aV5702b9b1e5b972652f2858dd
p902
aV5702b9b1e5b972652f2858e2
p903
aV5702b9b1e5b972652f2858e7
p904
aV5702b9b1e5b972652f2858ec
p905
aV5702b9b1e5b972652f2858f1
p906
aV5702b9b1e5b972652f2858f6
p907
aV5702b9b1e5b972652f2858fb
p908
aV5702b9b1e5b972652f285900
p909
aV5702b9b1e5b972652f285905
p910
aV5702b9b1e5b972652f28590a
p911
aV5702b9b1e5b972652f28590f
p912
aV5702b9b1e5b972652f285914
p913
aV5702b9b1e5b972652f285919
p914
aV5702b9b1e5b972652f28591e
p915
aV5702b9b1e5b972652f285923
p916
aV5702b9b1e5b972652f285928
p917
aV5702b9b1e5b972652f28592d
p918
aV5702b9b1e5b972652f285932
p919
aV5702b9b1e5b972652f285937
p920
aV5702b9b1e5b972652f28593c
p921
aV5702b9b1e5b972652f285941
p922
aV5702b9b1e5b972652f285946
p923
aV5702b9b1e5b972652f28594b
p924
aV5702b9b1e5b972652f285950
p925
aV5702b9b1e5b972652f285955
p926
aV5702b9b1e5b972652f28595a
p927
aV5702b9b1e5b972652f28595f
p928
aV5702b9b1e5b972652f285964
p929
aV5702b9b1e5b972652f285969
p930
aV5702b9b1e5b972652f28596e
p931
aV5702b9b1e5b972652f285973
p932
aV5702b9b1e5b972652f285978
p933
aV5702b9b1e5b972652f28597d
p934
aV5702b9b1e5b972652f285982
p935
aV5702b9b1e5b972652f285987
p936
aV5702b9b1e5b972652f28598c
p937
aV5702b9b1e5b972652f285991
p938
aV5702b9b1e5b972652f285996
p939
aV5702b9b1e5b972652f28599b
p940
aV5702b9b1e5b972652f2859a0
p941
aV5702b9b1e5b972652f2859a5
p942
aV5702b9b1e5b972652f2859aa
p943
aV5702b9b1e5b972652f2859af
p944
aV5702b9b1e5b972652f2859b4
p945
aV5702b9b1e5b972652f2859b9
p946
aV5702b9b1e5b972652f2859be
p947
aV5702b9b1e5b972652f2859c3
p948
aV5702b9b1e5b972652f2859c8
p949
aV5702b9b1e5b972652f2859cd
p950
aV5702b9b1e5b972652f2859d2
p951
aV5702b9b1e5b972652f2859d7
p952
aV5702b9b1e5b972652f2859dc
p953
aV5702b9b1e5b972652f2859e1
p954
aV5702b9b1e5b972652f2859e6
p955
aV5702b9b1e5b972652f2859eb
p956
aV5702b9b1e5b972652f2859f0
p957
aV5702b9b1e5b972652f2859f5
p958
aV5702b9b1e5b972652f2859fa
p959
aV5702b9b1e5b972652f2859ff
p960
aV5702b9b1e5b972652f285a04
p961
aV5702b9b1e5b972652f285a09
p962
aV5702b9b1e5b972652f285a0e
p963
aV5702b9b1e5b972652f285a13
p964
aV5702b9b1e5b972652f285a18
p965
aV5702b9b1e5b972652f285a1d
p966
aV5702b9b1e5b972652f285a22
p967
aV5702b9b1e5b972652f285a27
p968
aV5702b9b1e5b972652f285a2c
p969
aV5702b9b1e5b972652f285a31
p970
aV5702b9b1e5b972652f285a36
p971
aV5702b9b1e5b972652f285a3b
p972
aV5702b9b1e5b972652f285a40
p973
aV5702b9b1e5b972652f285a45
p974
aV5702b9b1e5b972652f285a4a
p975
aV5702b9b1e5b972652f285a4f
p976
aV5702b9b1e5b972652f285a54
p977
aV5702b9b1e5b972652f285a59
p978
aV5702b9b1e5b972652f285a5e
p979
aV5702b9b1e5b972652f285a63
p980
aV5702b9b1e5b972652f285a68
p981
aV5702b9b1e5b972652f285a6d
p982
aV5702b9b1e5b972652f285a72
p983
aV5702b9b1e5b972652f285a77
p984
aV5702b9b1e5b972652f285a7c
p985
aV5702b9b1e5b972652f285a81
p986
aV5702b9b1e5b972652f285a86
p987
aV5702b9b1e5b972652f285a8b
p988
aV5702b9b1e5b972652f285a90
p989
aV5702b9b1e5b972652f285a95
p990
aV5702b9b1e5b972652f285a9a
p991
aV5702b9b1e5b972652f285a9f
p992
aV5702b9b1e5b972652f285aa4
p993
aV5702b9b1e5b972652f285aa9
p994
aV5702b9b1e5b972652f285aae
p995
aV5702b9b1e5b972652f285ab3
p996
aV5702b9b1e5b972652f285ab8
p997
aV5702b9b1e5b972652f285abd
p998
aV5702b9b1e5b972652f285ac2
p999
aV5702b9b1e5b972652f285ac7
p1000
aV5702b9b1e5b972652f285acc
p1001
aV5702b9b1e5b972652f285ad1
p1002
aV5702b9b1e5b972652f285ad6
p1003
aV5702b9b1e5b972652f285adb
p1004
aV5702b9b1e5b972652f285ae0
p1005
aV5702b9b1e5b972652f285ae5
p1006
aV5702b9b1e5b972652f285aea
p1007
aV5702b9b1e5b972652f285aef
p1008
aV5702b9b1e5b972652f285af4
p1009
aV5702b9b1e5b972652f285af9
p1010
aV5702b9b1e5b972652f285afe
p1011
aV5702b9b1e5b972652f285b03
p1012
aV5702b9b1e5b972652f285b08
p1013
aV5702b9b1e5b972652f285b0d
p1014
aV5702b9b1e5b972652f285b12
p1015
aV5702b9b1e5b972652f285b17
p1016
aV5702b9b1e5b972652f285b1c
p1017
aV5702b9b1e5b972652f285b21
p1018
aV5702b9b1e5b972652f285b26
p1019
aV5702b9b1e5b972652f285b2b
p1020
aV5702b9b1e5b972652f285b30
p1021
aV5702b9b1e5b972652f285b35
p1022
aV5702b9b1e5b972652f285b3a
p1023
aV5702b9b1e5b972652f285b3f
p1024
aV5702b9b1e5b972652f285b44
p1025
aV5702b9b1e5b972652f285b49
p1026
aV5702b9b1e5b972652f285b4e
p1027
aV5702b9b1e5b972652f285b53
p1028
aV5702b9b1e5b972652f285b58
p1029
aV5702b9b1e5b972652f285b5d
p1030
aV5702b9b1e5b972652f285b62
p1031
aV5702b9b1e5b972652f285b67
p1032
aV5702b9b1e5b972652f285b6c
p1033
aV5702b9b1e5b972652f285b71
p1034
aV5702b9b1e5b972652f285b76
p1035
aV5702b9b1e5b972652f285b7b
p1036
aV5702b9b1e5b972652f285b80
p1037
aV5702b9b1e5b972652f285b85
p1038
aV5702b9b1e5b972652f285b8a
p1039
aV5702b9b1e5b972652f285b8f
p1040
aV5702b9b1e5b972652f285b94
p1041
aV5702b9b1e5b972652f285b99
p1042
aV5702b9b1e5b972652f285b9e
p1043
aV5702b9b1e5b972652f285ba3
p1044
aV5702b9b1e5b972652f285bbc
p1045
aV5702b9b1e5b972652f285ba8
p1046
aV5702b9b1e5b972652f285bc1
p1047
aV5702b9b1e5b972652f285bb7
p1048
aV5702b9b1e5b972652f285bb2
p1049
aV5702b9b1e5b972652f285bad
p1050
aV5702b9b1e5b972652f285bc6
p1051
aV5702b9b1e5b972652f285bcb
p1052
aV5702b9b1e5b972652f285bd0
p1053
aV5702b9b1e5b972652f285bd5
p1054
aV5702b9b2e5b972652f285bda
p1055
aV5702b9b2e5b972652f285bdf
p1056
aV5702b9b2e5b972652f285be4
p1057
aV5702b9b2e5b972652f285be9
p1058
aV5702b9b2e5b972652f285bee
p1059
aV5702b9b2e5b972652f285bf3
p1060
aV5702b9b2e5b972652f285bf8
p1061
aV5702b9b2e5b972652f285bfd
p1062
aV5702b9b2e5b972652f285c02
p1063
aV5702b9b2e5b972652f285c07
p1064
aV5702b9b2e5b972652f285c0c
p1065
aV5702b9b2e5b972652f285c11
p1066
aV5702b9b2e5b972652f285c16
p1067
aV5702b9b2e5b972652f285c1b
p1068
aV5702b9b2e5b972652f285c20
p1069
aV5702b9b2e5b972652f285c25
p1070
aV5702b9b2e5b972652f285c2a
p1071
aV5702b9b2e5b972652f285c2f
p1072
aV5702b9b2e5b972652f285c34
p1073
aV5702b9b2e5b972652f285c39
p1074
aV5702b9b2e5b972652f285c3e
p1075
aV5702b9b2e5b972652f285c43
p1076
aV5702b9b2e5b972652f285c48
p1077
aV5702b9b2e5b972652f285c4d
p1078
aV5702b9b2e5b972652f285c52
p1079
aV5702b9b2e5b972652f285c57
p1080
aV5702b9b2e5b972652f285c5c
p1081
aV5702b9b2e5b972652f285c61
p1082
aV5702b9b2e5b972652f285c66
p1083
aV5702b9b2e5b972652f285c6b
p1084
aV5702b9b2e5b972652f285c70
p1085
aV5702b9b2e5b972652f285c75
p1086
aV5702b9b2e5b972652f285c7a
p1087
aV5702b9b2e5b972652f285c7f
p1088
aV5702b9b2e5b972652f285c84
p1089
aV5702b9b2e5b972652f285c89
p1090
aV5702b9b2e5b972652f285c8e
p1091
aV5702b9b2e5b972652f285c93
p1092
aV5702b9b2e5b972652f285c98
p1093
aV5702b9b2e5b972652f285c9d
p1094
aV5702b9b2e5b972652f285ca2
p1095
aV5702b9b2e5b972652f285ca7
p1096
aV5702b9b2e5b972652f285cac
p1097
aV5702b9b2e5b972652f285cb1
p1098
aV5702b9b2e5b972652f285cb6
p1099
aV5702b9b2e5b972652f285cbb
p1100
aV5702b9b2e5b972652f285cc0
p1101
aV5702b9b2e5b972652f285cc5
p1102
aV5702b9b2e5b972652f285cca
p1103
aV5702b9b2e5b972652f285ccf
p1104
aV5702b9b2e5b972652f285cd4
p1105
aV5702b9b2e5b972652f285cd9
p1106
aV5702b9b2e5b972652f285cde
p1107
aV5702b9b2e5b972652f285ce3
p1108
aV5702b9b2e5b972652f285ce8
p1109
aV5702b9b2e5b972652f285ced
p1110
aV5702b9b2e5b972652f285cf2
p1111
aV5702b9b2e5b972652f285cf7
p1112
aV5702b9b2e5b972652f285cfc
p1113
aV5702b9b2e5b972652f285d01
p1114
aV5702b9b2e5b972652f285d06
p1115
aV5702b9b2e5b972652f285d0b
p1116
aV5702b9b2e5b972652f285d10
p1117
aV5702b9b2e5b972652f285d15
p1118
aV5702b9b2e5b972652f285d1a
p1119
aV5702b9b2e5b972652f285d1f
p1120
aV5702b9b2e5b972652f285d24
p1121
aV5702b9b2e5b972652f285d29
p1122
aV5702b9b2e5b972652f285d2e
p1123
aV5702b9b0e5b972652f2857ad
p1124
aV5702b9b0e5b972652f2857b2
p1125
aV5702b9b0e5b972652f2857b7
p1126
aV5702b9b0e5b972652f2857bc
p1127
aV5702b9b0e5b972652f2857c1
p1128
aV5702b9b0e5b972652f2857c6
p1129
aV5702b9b0e5b972652f2857cb
p1130
aV5702b9b1e5b972652f2857d0
p1131
aV5702b9b1e5b972652f2857d5
p1132
aV5702b9b1e5b972652f2857da
p1133
aV5702b9b1e5b972652f2857df
p1134
aV5702b9b1e5b972652f2857e4
p1135
aV5702b9b1e5b972652f2857e9
p1136
aV5702b9b1e5b972652f2857ee
p1137
aV5702b9b1e5b972652f2857f3
p1138
aV5702b9b1e5b972652f2857f8
p1139
aV5702b9b1e5b972652f2857fd
p1140
aV5702b9b1e5b972652f285802
p1141
aV5702b9b1e5b972652f285807
p1142
aV5702b9b1e5b972652f28580c
p1143
aV5702b9b1e5b972652f285811
p1144
aV5702b9b1e5b972652f285816
p1145
aV5702b9b1e5b972652f28581b
p1146
aV5702b9b1e5b972652f285820
p1147
aV5702b9b1e5b972652f285825
p1148
aV5702b9b1e5b972652f28582a
p1149
aV5702b9b1e5b972652f28582f
p1150
aV5702b9b1e5b972652f285834
p1151
aV5702b9b1e5b972652f285839
p1152
aV5702b9b1e5b972652f28583e
p1153
aV5702b9b1e5b972652f285843
p1154
aV5702b9b1e5b972652f285848
p1155
aV5702b9b1e5b972652f28584d
p1156
aV5702b9b1e5b972652f285852
p1157
aV5702b9b1e5b972652f285857
p1158
aV5702b9b1e5b972652f28585c
p1159
aV5702b9b1e5b972652f285861
p1160
aV5702b9b1e5b972652f285866
p1161
aV5702b9b1e5b972652f28586b
p1162
aV5702b9b1e5b972652f285870
p1163
aV5702b9b1e5b972652f285875
p1164
aV5702b9b1e5b972652f28587a
p1165
aV5702b9b1e5b972652f28587f
p1166
aV5702b9b1e5b972652f285884
p1167
aV5702b9b1e5b972652f285889
p1168
aV5702b9b1e5b972652f28588e
p1169
aV5702b9b1e5b972652f285893
p1170
aV5702b9b1e5b972652f285898
p1171
aV5702b9b1e5b972652f28589d
p1172
aV5702b9b1e5b972652f2858a2
p1173
aV5702b9b1e5b972652f2858a7
p1174
aV5702b9b1e5b972652f2858ac
p1175
aV5702b9b1e5b972652f2858b1
p1176
aV5702b9b1e5b972652f2858b6
p1177
aV5702b9b1e5b972652f2858bb
p1178
aV5702b9b1e5b972652f2858c0
p1179
aV5702b9b1e5b972652f2858c5
p1180
aV5702b9b1e5b972652f2858ca
p1181
aV5702b9b1e5b972652f2858cf
p1182
aV5702b9b1e5b972652f2858d4
p1183
aV5702b9b1e5b972652f2858d9
p1184
aV5702b9b1e5b972652f2858de
p1185
aV5702b9b1e5b972652f2858e3
p1186
aV5702b9b1e5b972652f2858e8
p1187
aV5702b9b1e5b972652f2858ed
p1188
aV5702b9b1e5b972652f2858f2
p1189
aV5702b9b1e5b972652f2858f7
p1190
aV5702b9b1e5b972652f2858fc
p1191
aV5702b9b1e5b972652f285901
p1192
aV5702b9b1e5b972652f285906
p1193
aV5702b9b1e5b972652f28590b
p1194
aV5702b9b1e5b972652f285910
p1195
aV5702b9b1e5b972652f285915
p1196
aV5702b9b1e5b972652f28591a
p1197
aV5702b9b1e5b972652f28591f
p1198
aV5702b9b1e5b972652f285924
p1199
aV5702b9b1e5b972652f285929
p1200
aV5702b9b1e5b972652f28592e
p1201
aV5702b9b1e5b972652f285933
p1202
aV5702b9b1e5b972652f285938
p1203
aV5702b9b1e5b972652f28593d
p1204
aV5702b9b1e5b972652f285942
p1205
aV5702b9b1e5b972652f285947
p1206
aV5702b9b1e5b972652f28594c
p1207
aV5702b9b1e5b972652f285951
p1208
aV5702b9b1e5b972652f285956
p1209
aV5702b9b1e5b972652f28595b
p1210
aV5702b9b1e5b972652f285960
p1211
aV5702b9b1e5b972652f285965
p1212
aV5702b9b1e5b972652f28596a
p1213
aV5702b9b1e5b972652f28596f
p1214
aV5702b9b1e5b972652f285974
p1215
aV5702b9b1e5b972652f285979
p1216
aV5702b9b1e5b972652f28597e
p1217
aV5702b9b1e5b972652f285983
p1218
aV5702b9b1e5b972652f285988
p1219
aV5702b9b1e5b972652f28598d
p1220
aV5702b9b1e5b972652f285992
p1221
aV5702b9b1e5b972652f285997
p1222
aV5702b9b1e5b972652f28599c
p1223
aV5702b9b1e5b972652f2859a1
p1224
aV5702b9b1e5b972652f2859a6
p1225
aV5702b9b1e5b972652f2859ab
p1226
aV5702b9b1e5b972652f2859b0
p1227
aV5702b9b1e5b972652f2859b5
p1228
aV5702b9b1e5b972652f2859ba
p1229
aV5702b9b1e5b972652f2859bf
p1230
aV5702b9b1e5b972652f2859c4
p1231
aV5702b9b1e5b972652f2859c9
p1232
aV5702b9b1e5b972652f2859ce
p1233
aV5702b9b1e5b972652f2859d3
p1234
aV5702b9b1e5b972652f2859d8
p1235
aV5702b9b1e5b972652f2859dd
p1236
aV5702b9b1e5b972652f2859e2
p1237
aV5702b9b1e5b972652f2859e7
p1238
aV5702b9b1e5b972652f2859ec
p1239
aV5702b9b1e5b972652f2859f1
p1240
aV5702b9b1e5b972652f2859f6
p1241
aV5702b9b1e5b972652f2859fb
p1242
aV5702b9b1e5b972652f285a00
p1243
aV5702b9b1e5b972652f285a05
p1244
aV5702b9b1e5b972652f285a0a
p1245
aV5702b9b1e5b972652f285a0f
p1246
aV5702b9b1e5b972652f285a14
p1247
aV5702b9b1e5b972652f285a19
p1248
aV5702b9b1e5b972652f285a1e
p1249
aV5702b9b1e5b972652f285a23
p1250
aV5702b9b1e5b972652f285a28
p1251
aV5702b9b1e5b972652f285a2d
p1252
aV5702b9b1e5b972652f285a32
p1253
aV5702b9b1e5b972652f285a37
p1254
aV5702b9b1e5b972652f285a3c
p1255
aV5702b9b1e5b972652f285a41
p1256
aV5702b9b1e5b972652f285a46
p1257
aV5702b9b1e5b972652f285a4b
p1258
aV5702b9b1e5b972652f285a50
p1259
aV5702b9b1e5b972652f285a55
p1260
aV5702b9b1e5b972652f285a5a
p1261
aV5702b9b1e5b972652f285a5f
p1262
aV5702b9b1e5b972652f285a64
p1263
aV5702b9b1e5b972652f285a69
p1264
aV5702b9b1e5b972652f285a6e
p1265
aV5702b9b1e5b972652f285a73
p1266
aV5702b9b1e5b972652f285a78
p1267
aV5702b9b1e5b972652f285a7d
p1268
aV5702b9b1e5b972652f285a82
p1269
aV5702b9b1e5b972652f285a87
p1270
aV5702b9b1e5b972652f285a8c
p1271
aV5702b9b1e5b972652f285a91
p1272
aV5702b9b1e5b972652f285a96
p1273
aV5702b9b1e5b972652f285a9b
p1274
aV5702b9b1e5b972652f285aa0
p1275
aV5702b9b1e5b972652f285aa5
p1276
aV5702b9b1e5b972652f285aaa
p1277
aV5702b9b1e5b972652f285aaf
p1278
aV5702b9b1e5b972652f285ab4
p1279
aV5702b9b1e5b972652f285ab9
p1280
aV5702b9b1e5b972652f285abe
p1281
aV5702b9b1e5b972652f285ac3
p1282
aV5702b9b1e5b972652f285ac8
p1283
aV5702b9b1e5b972652f285acd
p1284
aV5702b9b1e5b972652f285ad2
p1285
aV5702b9b1e5b972652f285ad7
p1286
aV5702b9b1e5b972652f285adc
p1287
aV5702b9b1e5b972652f285ae1
p1288
aV5702b9b1e5b972652f285ae6
p1289
aV5702b9b1e5b972652f285aeb
p1290
aV5702b9b1e5b972652f285af0
p1291
aV5702b9b1e5b972652f285af5
p1292
aV5702b9b1e5b972652f285afa
p1293
aV5702b9b1e5b972652f285aff
p1294
aV5702b9b1e5b972652f285b04
p1295
aV5702b9b1e5b972652f285b09
p1296
aV5702b9b1e5b972652f285b0e
p1297
aV5702b9b1e5b972652f285b13
p1298
aV5702b9b1e5b972652f285b18
p1299
aV5702b9b1e5b972652f285b1d
p1300
aV5702b9b1e5b972652f285b22
p1301
aV5702b9b1e5b972652f285b27
p1302
aV5702b9b1e5b972652f285b2c
p1303
aV5702b9b1e5b972652f285b31
p1304
aV5702b9b1e5b972652f285b36
p1305
aV5702b9b1e5b972652f285b3b
p1306
aV5702b9b1e5b972652f285b40
p1307
aV5702b9b1e5b972652f285b45
p1308
aV5702b9b1e5b972652f285b4a
p1309
aV5702b9b1e5b972652f285b4f
p1310
aV5702b9b1e5b972652f285b54
p1311
aV5702b9b1e5b972652f285b59
p1312
aV5702b9b1e5b972652f285b5e
p1313
aV5702b9b1e5b972652f285b63
p1314
aV5702b9b1e5b972652f285b68
p1315
aV5702b9b1e5b972652f285b6d
p1316
aV5702b9b1e5b972652f285b72
p1317
aV5702b9b1e5b972652f285b77
p1318
aV5702b9b1e5b972652f285b7c
p1319
aV5702b9b1e5b972652f285b81
p1320
aV5702b9b1e5b972652f285b86
p1321
aV5702b9b1e5b972652f285b8b
p1322
aV5702b9b1e5b972652f285b90
p1323
aV5702b9b1e5b972652f285b95
p1324
aV5702b9b1e5b972652f285b9a
p1325
aV5702b9b1e5b972652f285b9f
p1326
aV5702b9b1e5b972652f285ba4
p1327
aV5702b9b1e5b972652f285ba9
p1328
aV5702b9b1e5b972652f285bae
p1329
aV5702b9b1e5b972652f285bb3
p1330
aV5702b9b1e5b972652f285bb8
p1331
aV5702b9b1e5b972652f285bbd
p1332
aV5702b9b1e5b972652f285bc2
p1333
aV5702b9b1e5b972652f285bc7
p1334
aV5702b9b1e5b972652f285bcc
p1335
aV5702b9b1e5b972652f285bd1
p1336
aV5702b9b1e5b972652f285bd6
p1337
aV5702b9b2e5b972652f285bdb
p1338
aV5702b9b2e5b972652f285be0
p1339
aV5702b9b2e5b972652f285be5
p1340
aV5702b9b2e5b972652f285bea
p1341
aV5702b9b2e5b972652f285bef
p1342
aV5702b9b2e5b972652f285bf4
p1343
aV5702b9b2e5b972652f285bf9
p1344
aV5702b9b2e5b972652f285bfe
p1345
aV5702b9b2e5b972652f285c03
p1346
aV5702b9b2e5b972652f285c08
p1347
aV5702b9b2e5b972652f285c0d
p1348
aV5702b9b2e5b972652f285c12
p1349
aV5702b9b2e5b972652f285c17
p1350
aV5702b9b2e5b972652f285c1c
p1351
aV5702b9b2e5b972652f285c21
p1352
aV5702b9b2e5b972652f285c26
p1353
aV5702b9b2e5b972652f285c2b
p1354
aV5702b9b2e5b972652f285c30
p1355
aV5702b9b2e5b972652f285c35
p1356
aV5702b9b0e5b972652f2857af
p1357
aV5702b9b0e5b972652f2857b4
p1358
aV5702b9b0e5b972652f2857b9
p1359
aV5702b9b0e5b972652f2857be
p1360
aV5702b9b0e5b972652f2857c3
p1361
aV5702b9b0e5b972652f2857c8
p1362
aV5702b9b0e5b972652f2857cd
p1363
aV5702b9b1e5b972652f2857d2
p1364
aV5702b9b1e5b972652f2857d7
p1365
aV5702b9b1e5b972652f2857dc
p1366
aV5702b9b1e5b972652f2857e1
p1367
aV5702b9b1e5b972652f2857e6
p1368
aV5702b9b1e5b972652f2857eb
p1369
aV5702b9b1e5b972652f2857f0
p1370
aV5702b9b1e5b972652f2857f5
p1371
aV5702b9b1e5b972652f2857fa
p1372
aV5702b9b1e5b972652f2857ff
p1373
aV5702b9b1e5b972652f285804
p1374
aV5702b9b1e5b972652f285809
p1375
aV5702b9b1e5b972652f28580e
p1376
aV5702b9b1e5b972652f285813
p1377
aV5702b9b1e5b972652f285818
p1378
aV5702b9b1e5b972652f28581d
p1379
aV5702b9b1e5b972652f285822
p1380
aV5702b9b1e5b972652f285827
p1381
aV5702b9b1e5b972652f28582c
p1382
aV5702b9b1e5b972652f285831
p1383
aV5702b9b1e5b972652f285836
p1384
aV5702b9b1e5b972652f28583b
p1385
aV5702b9b1e5b972652f285840
p1386
aV5702b9b1e5b972652f285845
p1387
aV5702b9b1e5b972652f28584a
p1388
aV5702b9b1e5b972652f28584f
p1389
aV5702b9b1e5b972652f285854
p1390
aV5702b9b1e5b972652f285859
p1391
aV5702b9b1e5b972652f28585e
p1392
aV5702b9b1e5b972652f285863
p1393
aV5702b9b1e5b972652f285868
p1394
aV5702b9b1e5b972652f28586d
p1395
aV5702b9b1e5b972652f285872
p1396
aV5702b9b1e5b972652f285877
p1397
aV5702b9b1e5b972652f28587c
p1398
aV5702b9b1e5b972652f285881
p1399
aV5702b9b1e5b972652f285886
p1400
aV5702b9b1e5b972652f28588b
p1401
aV5702b9b1e5b972652f285890
p1402
aV5702b9b1e5b972652f285895
p1403
aV5702b9b1e5b972652f28589a
p1404
aV5702b9b1e5b972652f28589f
p1405
aV5702b9b1e5b972652f2858a4
p1406
aV5702b9b1e5b972652f2858a9
p1407
aV5702b9b1e5b972652f2858ae
p1408
aV5702b9b1e5b972652f2858b3
p1409
aV5702b9b1e5b972652f2858b8
p1410
aV5702b9b1e5b972652f2858bd
p1411
aV5702b9b1e5b972652f2858c2
p1412
aV5702b9b1e5b972652f2858c7
p1413
a.